target datalayout = "e-m:e-p270:32:32-p271:32:32-p272:64:64-i64:64-i128:128-f80:128-n8:16:32:64-S128"
target triple = "x86_64-pc-linux-gnu"

%struct.DdManager = type { %struct.DdNode, ptr, ptr, ptr, ptr, ptr, ptr, ptr, i32, i32, double, double, double, i32, i32, i32, i32, i32, i32, ptr, ptr, %struct.DdSubtable, i32, i32, i32, i32, i32, i32, i32, double, i32, i32, i32, ptr, i64, double, i32, ptr, ptr, ptr, ptr, ptr, ptr, ptr, i32, ptr, ptr, ptr, ptr, ptr, ptr, i32, i32, i32, double, i32, i32, i32, i32, double, double, i32, i32, i32, i32, i32, i32, i32, i32, i32, ptr, ptr, i32, i32, i32, i32, i32, i32, ptr, ptr, ptr, ptr, ptr, ptr, ptr, ptr, i32, i64, i64, i64, i32, i64, i64, double, double, double, double, double, double, i32, ptr, ptr, i64 }
%struct.DdNode = type { i32, i32, ptr, %union.anon, i64 }
%union.anon = type { %struct.DdChildren }
%struct.DdChildren = type { ptr, ptr }
%struct.DdSubtable = type { ptr, i32, i32, i32, i32, i32, i32, i32, i32, i32, i32, i32 }
%struct.MtrNode = type { i32, i32, i32, i32, ptr, ptr, ptr, ptr }

; Function Attrs: nounwind uwtable
define ptr @Cudd_MakeZddTreeNode(ptr noundef %0, i32 noundef %1, i32 noundef %2, i32 noundef %3) #0 {
  %5 = alloca ptr, align 8
  %6 = alloca ptr, align 8
  %7 = alloca i32, align 4
  %8 = alloca i32, align 4
  %9 = alloca i32, align 4
  %10 = alloca ptr, align 8
  %11 = alloca ptr, align 8
  %12 = alloca i32, align 4
  %13 = alloca i32, align 4
  store ptr %0, ptr %6, align 8, !tbaa !3
  store i32 %1, ptr %7, align 4, !tbaa !8
  store i32 %2, ptr %8, align 4, !tbaa !8
  store i32 %3, ptr %9, align 4, !tbaa !8
  call void @llvm.lifetime.start.p0(i64 8, ptr %10) #5
  call void @llvm.lifetime.start.p0(i64 8, ptr %11) #5
  call void @llvm.lifetime.start.p0(i64 4, ptr %12) #5
  %14 = load i32, ptr %7, align 4, !tbaa !8
  %15 = load ptr, ptr %6, align 8, !tbaa !3
  %16 = getelementptr inbounds nuw %struct.DdManager, ptr %15, i32 0, i32 16
  %17 = load i32, ptr %16, align 4, !tbaa !10
  %18 = icmp ult i32 %14, %17
  br i1 %18, label %19, label %27

19:                                               ; preds = %4
  %20 = load ptr, ptr %6, align 8, !tbaa !3
  %21 = getelementptr inbounds nuw %struct.DdManager, ptr %20, i32 0, i32 38
  %22 = load ptr, ptr %21, align 8, !tbaa !27
  %23 = load i32, ptr %7, align 4, !tbaa !8
  %24 = zext i32 %23 to i64
  %25 = getelementptr inbounds nuw i32, ptr %22, i64 %24
  %26 = load i32, ptr %25, align 4, !tbaa !8
  br label %29

27:                                               ; preds = %4
  %28 = load i32, ptr %7, align 4, !tbaa !8
  br label %29

29:                                               ; preds = %27, %19
  %30 = phi i32 [ %26, %19 ], [ %28, %27 ]
  store i32 %30, ptr %12, align 4, !tbaa !8
  %31 = load i32, ptr %12, align 4, !tbaa !8
  %32 = load i32, ptr %8, align 4, !tbaa !8
  %33 = add i32 %31, %32
  %34 = sub i32 %33, 1
  %35 = icmp ugt i32 %34, 2147483647
  br i1 %35, label %36, label %37

36:                                               ; preds = %29
  store ptr null, ptr %5, align 8
  store i32 1, ptr %13, align 4
  br label %94

37:                                               ; preds = %29
  %38 = load ptr, ptr %6, align 8, !tbaa !3
  %39 = getelementptr inbounds nuw %struct.DdManager, ptr %38, i32 0, i32 71
  %40 = load ptr, ptr %39, align 8, !tbaa !28
  store ptr %40, ptr %11, align 8, !tbaa !29
  %41 = load ptr, ptr %11, align 8, !tbaa !29
  %42 = icmp eq ptr %41, null
  br i1 %42, label %43, label %61

43:                                               ; preds = %37
  %44 = load ptr, ptr %6, align 8, !tbaa !3
  %45 = getelementptr inbounds nuw %struct.DdManager, ptr %44, i32 0, i32 16
  %46 = load i32, ptr %45, align 4, !tbaa !10
  %47 = call ptr @Mtr_InitGroupTree(i32 noundef 0, i32 noundef %46)
  store ptr %47, ptr %11, align 8, !tbaa !29
  %48 = load ptr, ptr %6, align 8, !tbaa !3
  %49 = getelementptr inbounds nuw %struct.DdManager, ptr %48, i32 0, i32 71
  store ptr %47, ptr %49, align 8, !tbaa !28
  %50 = load ptr, ptr %11, align 8, !tbaa !29
  %51 = icmp eq ptr %50, null
  br i1 %51, label %52, label %53

52:                                               ; preds = %43
  store ptr null, ptr %5, align 8
  store i32 1, ptr %13, align 4
  br label %94

53:                                               ; preds = %43
  %54 = load ptr, ptr %6, align 8, !tbaa !3
  %55 = getelementptr inbounds nuw %struct.DdManager, ptr %54, i32 0, i32 40
  %56 = load ptr, ptr %55, align 8, !tbaa !30
  %57 = getelementptr inbounds i32, ptr %56, i64 0
  %58 = load i32, ptr %57, align 4, !tbaa !8
  %59 = load ptr, ptr %11, align 8, !tbaa !29
  %60 = getelementptr inbounds nuw %struct.MtrNode, ptr %59, i32 0, i32 3
  store i32 %58, ptr %60, align 4, !tbaa !31
  br label %61

61:                                               ; preds = %53, %37
  %62 = load i32, ptr %12, align 4, !tbaa !8
  %63 = load i32, ptr %8, align 4, !tbaa !8
  %64 = add i32 %62, %63
  %65 = load ptr, ptr %11, align 8, !tbaa !29
  %66 = getelementptr inbounds nuw %struct.MtrNode, ptr %65, i32 0, i32 2
  %67 = load i32, ptr %66, align 8, !tbaa !33
  %68 = icmp ugt i32 %64, %67
  br i1 %68, label %69, label %73

69:                                               ; preds = %61
  %70 = load i32, ptr %12, align 4, !tbaa !8
  %71 = load i32, ptr %8, align 4, !tbaa !8
  %72 = add i32 %70, %71
  br label %77

73:                                               ; preds = %61
  %74 = load ptr, ptr %11, align 8, !tbaa !29
  %75 = getelementptr inbounds nuw %struct.MtrNode, ptr %74, i32 0, i32 2
  %76 = load i32, ptr %75, align 8, !tbaa !33
  br label %77

77:                                               ; preds = %73, %69
  %78 = phi i32 [ %72, %69 ], [ %76, %73 ]
  %79 = load ptr, ptr %11, align 8, !tbaa !29
  %80 = getelementptr inbounds nuw %struct.MtrNode, ptr %79, i32 0, i32 2
  store i32 %78, ptr %80, align 8, !tbaa !33
  %81 = load ptr, ptr %11, align 8, !tbaa !29
  %82 = load i32, ptr %12, align 4, !tbaa !8
  %83 = load i32, ptr %8, align 4, !tbaa !8
  %84 = load i32, ptr %9, align 4, !tbaa !8
  %85 = call ptr @Mtr_MakeGroup(ptr noundef %81, i32 noundef %82, i32 noundef %83, i32 noundef %84)
  store ptr %85, ptr %10, align 8, !tbaa !29
  %86 = load ptr, ptr %10, align 8, !tbaa !29
  %87 = icmp eq ptr %86, null
  br i1 %87, label %88, label %89

88:                                               ; preds = %77
  store ptr null, ptr %5, align 8
  store i32 1, ptr %13, align 4
  br label %94

89:                                               ; preds = %77
  %90 = load i32, ptr %7, align 4, !tbaa !8
  %91 = load ptr, ptr %10, align 8, !tbaa !29
  %92 = getelementptr inbounds nuw %struct.MtrNode, ptr %91, i32 0, i32 3
  store i32 %90, ptr %92, align 4, !tbaa !31
  %93 = load ptr, ptr %10, align 8, !tbaa !29
  store ptr %93, ptr %5, align 8
  store i32 1, ptr %13, align 4
  br label %94

94:                                               ; preds = %89, %88, %52, %36
  call void @llvm.lifetime.end.p0(i64 4, ptr %12) #5
  call void @llvm.lifetime.end.p0(i64 8, ptr %11) #5
  call void @llvm.lifetime.end.p0(i64 8, ptr %10) #5
  %95 = load ptr, ptr %5, align 8
  ret ptr %95
}