; Function Attrs: nounwind uwtable
define ptr @Cudd_MakeZddTreeNode(ptr noundef captures(none) %0, i32 noundef %1, i32 noundef %2, i32 noundef %3) local_unnamed_addr #0 {
  %5 = getelementptr inbounds nuw i8, ptr %0, i64 140
  %6 = load i32, ptr %5, align 4, !tbaa !3
  %7 = icmp ult i32 %1, %6
  br i1 %7, label %8, label %14

8:                                                ; preds = %4
  %9 = getelementptr inbounds nuw i8, ptr %0, i64 320
  %10 = load ptr, ptr %9, align 8, !tbaa !24
  %11 = zext i32 %1 to i64
  %12 = getelementptr inbounds nuw i32, ptr %10, i64 %11
  %13 = load i32, ptr %12, align 4, !tbaa !25
  br label %14

14:                                               ; preds = %4, %8
  %15 = phi i32 [ %13, %8 ], [ %1, %4 ]
  %16 = add i32 %15, %2
  %17 = add i32 %16, -1
  %18 = icmp slt i32 %17, 0
  br i1 %18, label %38, label %19

19:                                               ; preds = %14
  %20 = getelementptr inbounds nuw i8, ptr %0, i64 528
  %21 = load ptr, ptr %20, align 8, !tbaa !26
  %22 = icmp eq ptr %21, null
  br i1 %22, label %23, label %31

23:                                               ; preds = %19
  %24 = tail call ptr @Mtr_InitGroupTree(i32 noundef 0, i32 noundef %6) #9
  store ptr %24, ptr %20, align 8, !tbaa !26
  %25 = icmp eq ptr %24, null
  br i1 %25, label %38, label %26

26:                                               ; preds = %23
  %27 = getelementptr inbounds nuw i8, ptr %0, i64 336
  %28 = load ptr, ptr %27, align 8, !tbaa !27
  %29 = load i32, ptr %28, align 4, !tbaa !25
  %30 = getelementptr inbounds nuw i8, ptr %24, i64 12
  store i32 %29, ptr %30, align 4, !tbaa !28
  br label %31

31:                                               ; preds = %26, %19
  %.029 = phi ptr [ %24, %26 ], [ %21, %19 ]
  %32 = getelementptr inbounds nuw i8, ptr %.029, i64 8
  %33 = load i32, ptr %32, align 8, !tbaa !30
  %. = tail call i32 @llvm.umax.i32(i32 %16, i32 %33)
  store i32 %., ptr %32, align 8, !tbaa !30
  %34 = tail call ptr @Mtr_MakeGroup(ptr noundef nonnull %.029, i32 noundef %15, i32 noundef %2, i32 noundef %3) #9
  %35 = icmp eq ptr %34, null
  br i1 %35, label %38, label %36

36:                                               ; preds = %31
  %37 = getelementptr inbounds nuw i8, ptr %34, i64 12
  store i32 %1, ptr %37, align 4, !tbaa !28
  br label %38

38:                                               ; preds = %31, %23, %14, %36
  %.0 = phi ptr [ %34, %36 ], [ null, %14 ], [ null, %23 ], [ null, %31 ]
  ret ptr %.0
}